; Function Attrs: nounwind uwtable
define range(i32 0, 2) i32 @ossl_cmp_msg_gen_push1_ITAVs(ptr noundef readonly captures(address_is_null) %0, ptr noundef %1) local_unnamed_addr #0 {
  %.not = icmp eq ptr %0, null
  br i1 %.not, label %.loopexit, label %.preheader, !prof !18

.preheader:                                       ; preds = %2
  %3 = tail call i32 @OPENSSL_sk_num(ptr noundef %1) #7
  %4 = icmp sgt i32 %3, 0
  br i1 %4, label %.lr.ph, label %.loopexit

.lr.ph:                                           ; preds = %.preheader
  %5 = getelementptr inbounds nuw i8, ptr %0, i64 8
  br label %10

6:                                                ; preds = %ossl_cmp_msg_gen_push0_ITAV.exit
  %7 = add nuw nsw i32 %.018, 1
  %8 = tail call i32 @OPENSSL_sk_num(ptr noundef %1) #7
  %9 = icmp slt i32 %7, %8
  br i1 %9, label %10, label %.loopexit, !llvm.loop !89

10:                                               ; preds = %.lr.ph, %6
  %.018 = phi i32 [ 0, %.lr.ph ], [ %7, %6 ]
  %11 = tail call ptr @OPENSSL_sk_value(ptr noundef %1, i32 noundef %.018) #7
  %12 = tail call ptr @OSSL_CMP_ITAV_dup(ptr noundef %11) #7
  %13 = icmp eq ptr %12, null
  br i1 %13, label %.loopexit16, label %14

14:                                               ; preds = %10
  %15 = load ptr, ptr %5, align 8, !tbaa !17
  %.not4.i.i = icmp eq ptr %15, null
  br i1 %.not4.i.i, label %ossl_cmp_msg_gen_push0_ITAV.exit.thread, label %OSSL_CMP_MSG_get_bodytype.exit.i, !prof !18

OSSL_CMP_MSG_get_bodytype.exit.i:                 ; preds = %14
  %16 = load i32, ptr %15, align 8, !tbaa !19
  %17 = add i32 %16, -23
  %or.cond.i = icmp ult i32 %17, -2
  br i1 %or.cond.i, label %ossl_cmp_msg_gen_push0_ITAV.exit.thread, label %ossl_cmp_msg_gen_push0_ITAV.exit

ossl_cmp_msg_gen_push0_ITAV.exit.thread:          ; preds = %14, %OSSL_CMP_MSG_get_bodytype.exit.i
  tail call void @ERR_new() #7
  tail call void @ERR_set_debug(ptr noundef nonnull @.str, i32 noundef 714, ptr noundef nonnull @__func__.ossl_cmp_msg_gen_push0_ITAV) #7
  tail call void (i32, i32, ptr, ...) @ERR_set_error(i32 noundef 58, i32 noundef 100, ptr noundef null) #7
  br label %.loopexit16

ossl_cmp_msg_gen_push0_ITAV.exit:                 ; preds = %OSSL_CMP_MSG_get_bodytype.exit.i
  %18 = getelementptr inbounds nuw i8, ptr %15, i64 8
  %19 = tail call i32 @OSSL_CMP_ITAV_push0_stack_item(ptr noundef nonnull %18, ptr noundef nonnull %12) #7
  %.not13 = icmp eq i32 %19, 0
  br i1 %.not13, label %.loopexit16, label %6

.loopexit16:                                      ; preds = %ossl_cmp_msg_gen_push0_ITAV.exit, %10, %ossl_cmp_msg_gen_push0_ITAV.exit.thread
  tail call void @OSSL_CMP_ITAV_free(ptr noundef %12) #7
  br label %.loopexit

.loopexit:                                        ; preds = %6, %.preheader, %2, %.loopexit16
  %.010 = phi i32 [ 0, %.loopexit16 ], [ 0, %2 ], [ 1, %.preheader ], [ 1, %6 ]
  ret i32 %.010
}